target datalayout = "e-m:e-p270:32:32-p271:32:32-p272:64:64-i64:64-i128:128-f80:128-n8:16:32:64-S128"
target triple = "x86_64-pc-linux-gnu"

; Function Attrs: mustprogress nounwind uwtable
define void @_Z8BinToHexPKhmPcPwm(ptr noundef %0, i64 noundef %1, ptr noundef %2, ptr noundef %3, i64 noundef %4) #0 {
  %6 = alloca ptr, align 8
  %7 = alloca i64, align 8
  %8 = alloca ptr, align 8
  %9 = alloca ptr, align 8
  %10 = alloca i64, align 8
  %11 = alloca i32, align 4
  %12 = alloca i32, align 4
  %13 = alloca i32, align 4
  %14 = alloca i32, align 4
  %15 = alloca i32, align 4
  %16 = alloca i32, align 4
  %17 = alloca i32, align 4
  store ptr %0, ptr %6, align 8
  store i64 %1, ptr %7, align 8
  store ptr %2, ptr %8, align 8
  store ptr %3, ptr %9, align 8
  store i64 %4, ptr %10, align 8
  store i32 0, ptr %11, align 4
  store i32 0, ptr %12, align 4
  store i32 0, ptr %13, align 4
  br label %18

18:                                               ; preds = %106, %5
  %19 = load i32, ptr %13, align 4
  %20 = zext i32 %19 to i64
  %21 = load i64, ptr %7, align 8
  %22 = icmp ult i64 %20, %21
  br i1 %22, label %23, label %109

23:                                               ; preds = %18
  %24 = load ptr, ptr %6, align 8
  %25 = load i32, ptr %13, align 4
  %26 = zext i32 %25 to i64
  %27 = getelementptr inbounds i8, ptr %24, i64 %26
  %28 = load i8, ptr %27, align 1
  %29 = zext i8 %28 to i32
  %30 = ashr i32 %29, 4
  store i32 %30, ptr %14, align 4
  %31 = load ptr, ptr %6, align 8
  %32 = load i32, ptr %13, align 4
  %33 = zext i32 %32 to i64
  %34 = getelementptr inbounds i8, ptr %31, i64 %33
  %35 = load i8, ptr %34, align 1
  %36 = zext i8 %35 to i32
  %37 = and i32 %36, 15
  store i32 %37, ptr %15, align 4
  %38 = load i32, ptr %14, align 4
  %39 = icmp ugt i32 %38, 9
  br i1 %39, label %40, label %44

40:                                               ; preds = %23
  %41 = load i32, ptr %14, align 4
  %42 = add i32 97, %41
  %43 = sub i32 %42, 10
  br label %47

44:                                               ; preds = %23
  %45 = load i32, ptr %14, align 4
  %46 = add i32 48, %45
  br label %47

47:                                               ; preds = %44, %40
  %48 = phi i32 [ %43, %40 ], [ %46, %44 ]
  store i32 %48, ptr %16, align 4
  %49 = load i32, ptr %15, align 4
  %50 = icmp ugt i32 %49, 9
  br i1 %50, label %51, label %55

51:                                               ; preds = %47
  %52 = load i32, ptr %15, align 4
  %53 = add i32 97, %52
  %54 = sub i32 %53, 10
  br label %58

55:                                               ; preds = %47
  %56 = load i32, ptr %15, align 4
  %57 = add i32 48, %56
  br label %58

58:                                               ; preds = %55, %51
  %59 = phi i32 [ %54, %51 ], [ %57, %55 ]
  store i32 %59, ptr %17, align 4
  %60 = load ptr, ptr %8, align 8
  %61 = icmp ne ptr %60, null
  br i1 %61, label %62, label %83

62:                                               ; preds = %58
  %63 = load i32, ptr %11, align 4
  %64 = zext i32 %63 to i64
  %65 = load i64, ptr %10, align 8
  %66 = sub i64 %65, 2
  %67 = icmp ult i64 %64, %66
  br i1 %67, label %68, label %83

68:                                               ; preds = %62
  %69 = load i32, ptr %16, align 4
  %70 = trunc i32 %69 to i8
  %71 = load ptr, ptr %8, align 8
  %72 = load i32, ptr %11, align 4
  %73 = add i32 %72, 1
  store i32 %73, ptr %11, align 4
  %74 = zext i32 %72 to i64
  %75 = getelementptr inbounds i8, ptr %71, i64 %74
  store i8 %70, ptr %75, align 1
  %76 = load i32, ptr %17, align 4
  %77 = trunc i32 %76 to i8
  %78 = load ptr, ptr %8, align 8
  %79 = load i32, ptr %11, align 4
  %80 = add i32 %79, 1
  store i32 %80, ptr %11, align 4
  %81 = zext i32 %79 to i64
  %82 = getelementptr inbounds i8, ptr %78, i64 %81
  store i8 %77, ptr %82, align 1
  br label %83

83:                                               ; preds = %68, %62, %58
  %84 = load ptr, ptr %9, align 8
  %85 = icmp ne ptr %84, null
  br i1 %85, label %86, label %105

86:                                               ; preds = %83
  %87 = load i32, ptr %12, align 4
  %88 = zext i32 %87 to i64
  %89 = load i64, ptr %10, align 8
  %90 = sub i64 %89, 2
  %91 = icmp ult i64 %88, %90
  br i1 %91, label %92, label %105

92:                                               ; preds = %86
  %93 = load i32, ptr %16, align 4
  %94 = load ptr, ptr %9, align 8
  %95 = load i32, ptr %12, align 4
  %96 = add i32 %95, 1
  store i32 %96, ptr %12, align 4
  %97 = zext i32 %95 to i64
  %98 = getelementptr inbounds i32, ptr %94, i64 %97
  store i32 %93, ptr %98, align 4
  %99 = load i32, ptr %17, align 4
  %100 = load ptr, ptr %9, align 8
  %101 = load i32, ptr %12, align 4
  %102 = add i32 %101, 1
  store i32 %102, ptr %12, align 4
  %103 = zext i32 %101 to i64
  %104 = getelementptr inbounds i32, ptr %100, i64 %103
  store i32 %99, ptr %104, align 4
  br label %105

105:                                              ; preds = %92, %86, %83
  br label %106

106:                                              ; preds = %105
  %107 = load i32, ptr %13, align 4
  %108 = add i32 %107, 1
  store i32 %108, ptr %13, align 4
  br label %18, !llvm.loop !10

109:                                              ; preds = %18
  %110 = load ptr, ptr %8, align 8
  %111 = icmp ne ptr %110, null
  br i1 %111, label %112, label %120

112:                                              ; preds = %109
  %113 = load i64, ptr %10, align 8
  %114 = icmp ugt i64 %113, 0
  br i1 %114, label %115, label %120

115:                                              ; preds = %112
  %116 = load ptr, ptr %8, align 8
  %117 = load i32, ptr %11, align 4
  %118 = zext i32 %117 to i64
  %119 = getelementptr inbounds i8, ptr %116, i64 %118
  store i8 0, ptr %119, align 1
  br label %120

120:                                              ; preds = %115, %112, %109
  %121 = load ptr, ptr %9, align 8
  %122 = icmp ne ptr %121, null
  br i1 %122, label %123, label %131

123:                                              ; preds = %120
  %124 = load i64, ptr %10, align 8
  %125 = icmp ugt i64 %124, 0
  br i1 %125, label %126, label %131

126:                                              ; preds = %123
  %127 = load ptr, ptr %9, align 8
  %128 = load i32, ptr %12, align 4
  %129 = zext i32 %128 to i64
  %130 = getelementptr inbounds i32, ptr %127, i64 %129
  store i32 0, ptr %130, align 4
  br label %131

131:                                              ; preds = %126, %123, %120
  ret void
}