; Function Attrs: mustprogress nofree norecurse nosync nounwind memory(argmem: readwrite) uwtable
define void @_Z8BinToHexPKhmPcPwm(ptr nocapture noundef readonly %0, i64 noundef %1, ptr noundef writeonly %2, ptr noundef writeonly %3, i64 noundef %4) local_unnamed_addr #8 {
  %.not72 = icmp eq i64 %1, 0
  br i1 %.not72, label %._crit_edge, label %.lr.ph

.lr.ph:                                           ; preds = %5
  %.not = icmp eq ptr %2, null
  %6 = add i64 %4, -2
  %.not55 = icmp eq ptr %3, null
  br i1 %.not, label %.lr.ph.split.us, label %.lr.ph.split

.lr.ph.split.us:                                  ; preds = %.lr.ph
  br i1 %.not55, label %.thread, label %.lr.ph.split.us.split

.lr.ph.split.us.split:                            ; preds = %.lr.ph.split.us, %29
  %7 = phi i64 [ %31, %29 ], [ 0, %.lr.ph.split.us ]
  %.04157.us = phi i32 [ %.142.us, %29 ], [ 0, %.lr.ph.split.us ]
  %.04356.us = phi i32 [ %30, %29 ], [ 0, %.lr.ph.split.us ]
  %8 = zext i32 %.04157.us to i64
  %9 = icmp ugt i64 %6, %8
  br i1 %9, label %10, label %29

10:                                               ; preds = %.lr.ph.split.us.split
  %11 = getelementptr inbounds i8, ptr %0, i64 %7
  %12 = load i8, ptr %11, align 1
  %13 = zext i8 %12 to i32
  %14 = and i32 %13, 15
  %15 = icmp ugt i32 %14, 9
  %16 = add nuw nsw i32 %14, 87
  %17 = or disjoint i32 %14, 48
  %18 = select i1 %15, i32 %16, i32 %17
  %19 = icmp ugt i8 %12, -97
  %20 = lshr i32 %13, 4
  %21 = add nuw nsw i32 %20, 87
  %22 = or disjoint i32 %20, 48
  %23 = select i1 %19, i32 %21, i32 %22
  %24 = add i32 %.04157.us, 1
  %25 = getelementptr inbounds i32, ptr %3, i64 %8
  store i32 %23, ptr %25, align 4
  %26 = add i32 %.04157.us, 2
  %27 = zext i32 %24 to i64
  %28 = getelementptr inbounds i32, ptr %3, i64 %27
  store i32 %18, ptr %28, align 4
  br label %29

29:                                               ; preds = %10, %.lr.ph.split.us.split
  %.142.us = phi i32 [ %26, %10 ], [ %.04157.us, %.lr.ph.split.us.split ]
  %30 = add i32 %.04356.us, 1
  %31 = zext i32 %30 to i64
  %32 = icmp ult i64 %31, %1
  br i1 %32, label %.lr.ph.split.us.split, label %._crit_edge, !llvm.loop !10

.lr.ph.split:                                     ; preds = %.lr.ph
  br i1 %.not55, label %.lr.ph.split.split.us, label %.lr.ph.split.split

.lr.ph.split.split.us:                            ; preds = %.lr.ph.split, %57
  %33 = phi i64 [ %59, %57 ], [ 0, %.lr.ph.split ]
  %.058.us61 = phi i32 [ %.1.us64, %57 ], [ 0, %.lr.ph.split ]
  %.04356.us63 = phi i32 [ %58, %57 ], [ 0, %.lr.ph.split ]
  %34 = zext i32 %.058.us61 to i64
  %35 = icmp ugt i64 %6, %34
  br i1 %35, label %36, label %57

36:                                               ; preds = %.lr.ph.split.split.us
  %37 = getelementptr inbounds i8, ptr %0, i64 %33
  %38 = load i8, ptr %37, align 1
  %39 = zext i8 %38 to i32
  %40 = and i32 %39, 15
  %41 = icmp ugt i32 %40, 9
  %42 = add nuw nsw i32 %40, 87
  %43 = or disjoint i32 %40, 48
  %44 = select i1 %41, i32 %42, i32 %43
  %45 = icmp ugt i8 %38, -97
  %46 = lshr i32 %39, 4
  %47 = add nuw nsw i32 %46, 87
  %48 = or disjoint i32 %46, 48
  %49 = select i1 %45, i32 %47, i32 %48
  %50 = trunc nuw nsw i32 %49 to i8
  %51 = add i32 %.058.us61, 1
  %52 = getelementptr inbounds i8, ptr %2, i64 %34
  store i8 %50, ptr %52, align 1
  %53 = trunc nuw nsw i32 %44 to i8
  %54 = add i32 %.058.us61, 2
  %55 = zext i32 %51 to i64
  %56 = getelementptr inbounds i8, ptr %2, i64 %55
  store i8 %53, ptr %56, align 1
  br label %57

57:                                               ; preds = %36, %.lr.ph.split.split.us
  %.1.us64 = phi i32 [ %54, %36 ], [ %.058.us61, %.lr.ph.split.split.us ]
  %58 = add i32 %.04356.us63, 1
  %59 = zext i32 %58 to i64
  %60 = icmp ult i64 %59, %1
  br i1 %60, label %.lr.ph.split.split.us, label %._crit_edge, !llvm.loop !10

.lr.ph.split.split:                               ; preds = %.lr.ph.split, %94
  %61 = phi i64 [ %96, %94 ], [ 0, %.lr.ph.split ]
  %.058 = phi i32 [ %.1, %94 ], [ 0, %.lr.ph.split ]
  %.04157 = phi i32 [ %.142, %94 ], [ 0, %.lr.ph.split ]
  %.04356 = phi i32 [ %95, %94 ], [ 0, %.lr.ph.split ]
  %62 = getelementptr inbounds i8, ptr %0, i64 %61
  %63 = load i8, ptr %62, align 1
  %64 = zext i8 %63 to i32
  %65 = lshr i32 %64, 4
  %66 = and i32 %64, 15
  %67 = icmp ugt i8 %63, -97
  %68 = add nuw nsw i32 %65, 87
  %69 = or disjoint i32 %65, 48
  %70 = select i1 %67, i32 %68, i32 %69
  %71 = icmp ugt i32 %66, 9
  %72 = add nuw nsw i32 %66, 87
  %73 = or disjoint i32 %66, 48
  %74 = select i1 %71, i32 %72, i32 %73
  %75 = zext i32 %.058 to i64
  %76 = icmp ugt i64 %6, %75
  br i1 %76, label %77, label %85

77:                                               ; preds = %.lr.ph.split.split
  %78 = trunc nuw nsw i32 %70 to i8
  %79 = add i32 %.058, 1
  %80 = getelementptr inbounds i8, ptr %2, i64 %75
  store i8 %78, ptr %80, align 1
  %81 = trunc nuw nsw i32 %74 to i8
  %82 = add i32 %.058, 2
  %83 = zext i32 %79 to i64
  %84 = getelementptr inbounds i8, ptr %2, i64 %83
  store i8 %81, ptr %84, align 1
  br label %85

85:                                               ; preds = %77, %.lr.ph.split.split
  %.1 = phi i32 [ %82, %77 ], [ %.058, %.lr.ph.split.split ]
  %86 = zext i32 %.04157 to i64
  %87 = icmp ugt i64 %6, %86
  br i1 %87, label %88, label %94

88:                                               ; preds = %85
  %89 = add i32 %.04157, 1
  %90 = getelementptr inbounds i32, ptr %3, i64 %86
  store i32 %70, ptr %90, align 4
  %91 = add i32 %.04157, 2
  %92 = zext i32 %89 to i64
  %93 = getelementptr inbounds i32, ptr %3, i64 %92
  store i32 %74, ptr %93, align 4
  br label %94

94:                                               ; preds = %85, %88
  %.142 = phi i32 [ %91, %88 ], [ %.04157, %85 ]
  %95 = add i32 %.04356, 1
  %96 = zext i32 %95 to i64
  %97 = icmp ult i64 %96, %1
  br i1 %97, label %.lr.ph.split.split, label %._crit_edge, !llvm.loop !10

._crit_edge:                                      ; preds = %94, %57, %29, %5
  %.041.lcssa = phi i32 [ 0, %5 ], [ %.142.us, %29 ], [ 0, %57 ], [ %.142, %94 ]
  %.0.lcssa = phi i32 [ 0, %5 ], [ 0, %29 ], [ %.1.us64, %57 ], [ %.1, %94 ]
  %98 = icmp ne ptr %2, null
  %99 = icmp ne i64 %4, 0
  %or.cond = and i1 %98, %99
  br i1 %or.cond, label %100, label %103

100:                                              ; preds = %._crit_edge
  %101 = zext i32 %.0.lcssa to i64
  %102 = getelementptr inbounds i8, ptr %2, i64 %101
  store i8 0, ptr %102, align 1
  br label %103

103:                                              ; preds = %100, %._crit_edge
  %104 = icmp ne ptr %3, null
  %or.cond3 = and i1 %104, %99
  br i1 %or.cond3, label %105, label %.thread

105:                                              ; preds = %103
  %106 = zext i32 %.041.lcssa to i64
  %107 = getelementptr inbounds i32, ptr %3, i64 %106
  store i32 0, ptr %107, align 4
  br label %.thread

.thread:                                          ; preds = %.lr.ph.split.us, %105, %103
  ret void
}